target datalayout = "e-m:e-p270:32:32-p271:32:32-p272:64:64-i64:64-i128:128-f80:128-n8:16:32:64-S128"
target triple = "x86_64-pc-linux-gnu"

%struct.PyVarObject = type { %struct._object, i64 }
%struct._object = type { %union.anon, ptr }
%union.anon = type { i64 }
%struct.PyTupleObject = type { %struct.PyVarObject, [1 x ptr] }

; Function Attrs: nounwind uwtable
define dso_local ptr @PyMemoryView_FromObject(ptr noundef %0) #0 {
  %2 = alloca ptr, align 8
  store ptr %0, ptr %2, align 8, !tbaa !4
  %3 = load ptr, ptr %2, align 8, !tbaa !4
  %4 = call ptr @PyMemoryView_FromObjectAndFlags(ptr noundef %3, i32 noundef 284)
  ret ptr %4
}

; Function Attrs: inlinehint nounwind uwtable
define internal i64 @Py_SIZE(ptr noundef %0) #3 {
  %2 = alloca ptr, align 8
  store ptr %0, ptr %2, align 8, !tbaa !4
  %3 = load ptr, ptr %2, align 8, !tbaa !4
  %4 = getelementptr inbounds nuw %struct.PyVarObject, ptr %3, i32 0, i32 1
  %5 = load i64, ptr %4, align 8, !tbaa !183
  ret i64 %5
}

; Function Attrs: nounwind uwtable
define internal ptr @memoryview_impl(ptr noundef %0, ptr noundef %1) #0 {
  %3 = alloca ptr, align 8
  %4 = alloca ptr, align 8
  store ptr %0, ptr %3, align 8, !tbaa !70
  store ptr %1, ptr %4, align 8, !tbaa !4
  %5 = load ptr, ptr %4, align 8, !tbaa !4
  %6 = call ptr @PyMemoryView_FromObject(ptr noundef %5)
  ret ptr %6
}

; Function Attrs: inlinehint nounwind uwtable
define internal i64 @PyTuple_GET_SIZE(ptr noundef %0) #3 {
  %2 = alloca ptr, align 8
  %3 = alloca ptr, align 8
  store ptr %0, ptr %2, align 8, !tbaa !4
  call void @llvm.lifetime.start.p0(i64 8, ptr %3) #9
  %4 = load ptr, ptr %2, align 8, !tbaa !4
  store ptr %4, ptr %3, align 8, !tbaa !9
  %5 = load ptr, ptr %3, align 8, !tbaa !9
  %6 = call i64 @Py_SIZE(ptr noundef %5)
  call void @llvm.lifetime.end.p0(i64 8, ptr %3) #9
  ret i64 %6
}

; Function Attrs: nounwind uwtable
define internal ptr @memoryview(ptr noundef %0, ptr noundef %1, ptr noundef %2) #0 {
  %4 = alloca ptr, align 8
  %5 = alloca ptr, align 8
  %6 = alloca ptr, align 8
  %7 = alloca ptr, align 8
  %8 = alloca [1 x ptr], align 8
  %9 = alloca ptr, align 8
  %10 = alloca i64, align 8
  %11 = alloca ptr, align 8
  store ptr %0, ptr %4, align 8, !tbaa !70
  store ptr %1, ptr %5, align 8, !tbaa !4
  store ptr %2, ptr %6, align 8, !tbaa !4
  call void @llvm.lifetime.start.p0(i64 8, ptr %7) #9
  store ptr null, ptr %7, align 8, !tbaa !4
  call void @llvm.lifetime.start.p0(i64 8, ptr %8) #9
  call void @llvm.lifetime.start.p0(i64 8, ptr %9) #9
  call void @llvm.lifetime.start.p0(i64 8, ptr %10) #9
  %12 = load ptr, ptr %5, align 8, !tbaa !4
  %13 = call i64 @PyTuple_GET_SIZE(ptr noundef %12)
  store i64 %13, ptr %10, align 8, !tbaa !23
  call void @llvm.lifetime.start.p0(i64 8, ptr %11) #9
  %14 = load ptr, ptr %6, align 8, !tbaa !4
  %15 = icmp eq ptr %14, null
  br i1 %15, label %16, label %31

16:                                               ; preds = %3
  %17 = load i64, ptr %10, align 8, !tbaa !23
  %18 = icmp sle i64 1, %17
  br i1 %18, label %19, label %31

19:                                               ; preds = %16
  %20 = load i64, ptr %10, align 8, !tbaa !23
  %21 = icmp sle i64 %20, 1
  br i1 %21, label %22, label %31

22:                                               ; preds = %19
  %23 = load ptr, ptr %5, align 8, !tbaa !4
  %24 = getelementptr inbounds nuw %struct.PyTupleObject, ptr %23, i32 0, i32 1
  %25 = getelementptr inbounds [1 x ptr], ptr %24, i64 0, i64 0
  %26 = icmp ne ptr %25, null
  br i1 %26, label %27, label %31

27:                                               ; preds = %22
  %28 = load ptr, ptr %5, align 8, !tbaa !4
  %29 = getelementptr inbounds nuw %struct.PyTupleObject, ptr %28, i32 0, i32 1
  %30 = getelementptr inbounds [1 x ptr], ptr %29, i64 0, i64 0
  br label %39

31:                                               ; preds = %22, %19, %16, %3
  %32 = load ptr, ptr %5, align 8, !tbaa !4
  %33 = getelementptr inbounds nuw %struct.PyTupleObject, ptr %32, i32 0, i32 1
  %34 = getelementptr inbounds [1 x ptr], ptr %33, i64 0, i64 0
  %35 = load i64, ptr %10, align 8, !tbaa !23
  %36 = load ptr, ptr %6, align 8, !tbaa !4
  %37 = getelementptr inbounds [1 x ptr], ptr %8, i64 0, i64 0
  %38 = call ptr @_PyArg_UnpackKeywords(ptr noundef %34, i64 noundef %35, ptr noundef %36, ptr noundef null, ptr noundef @memoryview._parser, i32 noundef 1, i32 noundef 1, i32 noundef 0, i32 noundef 0, ptr noundef %37)
  br label %39

39:                                               ; preds = %31, %27
  %40 = phi ptr [ %30, %27 ], [ %38, %31 ]
  store ptr %40, ptr %9, align 8, !tbaa !71
  %41 = load ptr, ptr %9, align 8, !tbaa !71
  %42 = icmp ne ptr %41, null
  br i1 %42, label %44, label %43

43:                                               ; preds = %39
  br label %51

44:                                               ; preds = %39
  %45 = load ptr, ptr %9, align 8, !tbaa !71
  %46 = getelementptr ptr, ptr %45, i64 0
  %47 = load ptr, ptr %46, align 8, !tbaa !4
  store ptr %47, ptr %11, align 8, !tbaa !4
  %48 = load ptr, ptr %4, align 8, !tbaa !70
  %49 = load ptr, ptr %11, align 8, !tbaa !4
  %50 = call ptr @memoryview_impl(ptr noundef %48, ptr noundef %49)
  store ptr %50, ptr %7, align 8, !tbaa !4
  br label %51

51:                                               ; preds = %44, %43
  %52 = load ptr, ptr %7, align 8, !tbaa !4
  call void @llvm.lifetime.end.p0(i64 8, ptr %11) #9
  call void @llvm.lifetime.end.p0(i64 8, ptr %10) #9
  call void @llvm.lifetime.end.p0(i64 8, ptr %9) #9
  call void @llvm.lifetime.end.p0(i64 8, ptr %8) #9
  call void @llvm.lifetime.end.p0(i64 8, ptr %7) #9
  ret ptr %52
}