; Function Attrs: nounwind uwtable
define internal ptr @memoryview(ptr readnone captures(none) %0, ptr noundef %1, ptr noundef %2) #0 {
  %4 = alloca [1 x ptr], align 8
  call void @llvm.lifetime.start.p0(i64 8, ptr nonnull %4) #14
  %5 = getelementptr i8, ptr %1, i64 16
  %.val = load i64, ptr %5, align 8, !tbaa !162
  %6 = icmp eq ptr %2, null
  %7 = icmp eq i64 %.val, 1
  %or.cond3 = select i1 %6, i1 %7, i1 false
  %8 = getelementptr inbounds nuw i8, ptr %1, i64 24
  br i1 %or.cond3, label %.thread, label %9

9:                                                ; preds = %3
  %10 = call ptr @_PyArg_UnpackKeywords(ptr noundef nonnull %8, i64 noundef %.val, ptr noundef %2, ptr noundef null, ptr noundef nonnull @memoryview._parser, i32 noundef 1, i32 noundef 1, i32 noundef 0, i32 noundef 0, ptr noundef nonnull %4) #14
  %.not = icmp eq ptr %10, null
  br i1 %.not, label %14, label %.thread

.thread:                                          ; preds = %3, %9
  %11 = phi ptr [ %10, %9 ], [ %8, %3 ]
  %12 = load ptr, ptr %11, align 8, !tbaa !104
  %13 = call fastcc ptr @PyMemoryView_FromObjectAndFlags(ptr noundef %12, i32 noundef 284)
  br label %14

14:                                               ; preds = %9, %.thread
  %.0 = phi ptr [ %13, %.thread ], [ null, %9 ]
  call void @llvm.lifetime.end.p0(i64 8, ptr nonnull %4) #14
  ret ptr %.0
}